; ModuleID = '17.c'
source_filename = "17.c"
target datalayout = "e-m:e-p270:32:32-p271:32:32-p272:64:64-i64:64-f80:128-n8:16:32:64-S128"
target triple = "x86_64-pc-linux-gnu"

%struct.pe = type { [100 x i8], i32 }

@.str = private unnamed_addr constant [3 x i8] c"%d\00", align 1
@.str.1 = private unnamed_addr constant [6 x i8] c"%s %d\00", align 1
@.str.2 = private unnamed_addr constant [4 x i8] c"%s\0A\00", align 1

; Function Attrs: noinline nounwind uwtable
define dso_local i32 @main() #0 {
  %1 = alloca i32, align 4
  %2 = alloca i32, align 4
  %3 = alloca %struct.pe*, align 8
  %4 = alloca i32, align 4
  %5 = alloca i32, align 4
  %6 = alloca %struct.pe, align 4
  store i32 0, i32* %1, align 4
  %7 = call i32 (i8*, ...) @__isoc99_scanf(i8* getelementptr inbounds ([3 x i8], [3 x i8]* @.str, i64 0, i64 0), i32* %2)
  %8 = load i32, i32* %2, align 4
  %9 = sext i32 %8 to i64
  %10 = mul i64 104, %9
  %11 = call noalias i8* @malloc(i64 %10) #4
  %12 = bitcast i8* %11 to %struct.pe*
  store %struct.pe* %12, %struct.pe** %3, align 8
  store i32 0, i32* %4, align 4
  br label %13

13:                                               ; preds = %30, %0
  %14 = load i32, i32* %4, align 4
  %15 = load i32, i32* %2, align 4
  %16 = icmp slt i32 %14, %15
  br i1 %16, label %17, label %33

17:                                               ; preds = %13
  %18 = load %struct.pe*, %struct.pe** %3, align 8
  %19 = load i32, i32* %4, align 4
  %20 = sext i32 %19 to i64
  %21 = getelementptr inbounds %struct.pe, %struct.pe* %18, i64 %20
  %22 = getelementptr inbounds %struct.pe, %struct.pe* %21, i32 0, i32 0
  %23 = getelementptr inbounds [100 x i8], [100 x i8]* %22, i64 0, i64 0
  %24 = load %struct.pe*, %struct.pe** %3, align 8
  %25 = load i32, i32* %4, align 4
  %26 = sext i32 %25 to i64
  %27 = getelementptr inbounds %struct.pe, %struct.pe* %24, i64 %26
  %28 = getelementptr inbounds %struct.pe, %struct.pe* %27, i32 0, i32 1
  %29 = call i32 (i8*, ...) @__isoc99_scanf(i8* getelementptr inbounds ([6 x i8], [6 x i8]* @.str.1, i64 0, i64 0), i8* %23, i32* %28)
  br label %30

30:                                               ; preds = %17
  %31 = load i32, i32* %4, align 4
  %32 = add nsw i32 %31, 1
  store i32 %32, i32* %4, align 4
  br label %13

33:                                               ; preds = %13
  %34 = load i32, i32* %2, align 4
  %35 = sub nsw i32 %34, 1
  store i32 %35, i32* %4, align 4
  br label %36

36:                                               ; preds = %98, %33
  %37 = load i32, i32* %4, align 4
  %38 = icmp sgt i32 %37, 0
  br i1 %38, label %39, label %101

39:                                               ; preds = %36
  store i32 0, i32* %5, align 4
  br label %40

40:                                               ; preds = %94, %39
  %41 = load i32, i32* %5, align 4
  %42 = load i32, i32* %4, align 4
  %43 = icmp slt i32 %41, %42
  br i1 %43, label %44, label %97

44:                                               ; preds = %40
  %45 = load %struct.pe*, %struct.pe** %3, align 8
  %46 = load i32, i32* %5, align 4
  %47 = sext i32 %46 to i64
  %48 = getelementptr inbounds %struct.pe, %struct.pe* %45, i64 %47
  %49 = getelementptr inbounds %struct.pe, %struct.pe* %48, i64 1
  %50 = getelementptr inbounds %struct.pe, %struct.pe* %49, i32 0, i32 1
  %51 = load i32, i32* %50, align 4
  %52 = icmp sge i32 %51, 60
  br i1 %52, label %53, label %93

53:                                               ; preds = %44
  %54 = load %struct.pe*, %struct.pe** %3, align 8
  %55 = load i32, i32* %5, align 4
  %56 = sext i32 %55 to i64
  %57 = getelementptr inbounds %struct.pe, %struct.pe* %54, i64 %56
  %58 = getelementptr inbounds %struct.pe, %struct.pe* %57, i32 0, i32 1
  %59 = load i32, i32* %58, align 4
  %60 = load %struct.pe*, %struct.pe** %3, align 8
  %61 = load i32, i32* %5, align 4
  %62 = sext i32 %61 to i64
  %63 = getelementptr inbounds %struct.pe, %struct.pe* %60, i64 %62
  %64 = getelementptr inbounds %struct.pe, %struct.pe* %63, i64 1
  %65 = getelementptr inbounds %struct.pe, %struct.pe* %64, i32 0, i32 1
  %66 = load i32, i32* %65, align 4
  %67 = icmp slt i32 %59, %66
  br i1 %67, label %68, label %93

68:                                               ; preds = %53
  %69 = load %struct.pe*, %struct.pe** %3, align 8
  %70 = load i32, i32* %5, align 4
  %71 = add nsw i32 %70, 1
  %72 = sext i32 %71 to i64
  %73 = getelementptr inbounds %struct.pe, %struct.pe* %69, i64 %72
  %74 = bitcast %struct.pe* %6 to i8*
  %75 = bitcast %struct.pe* %73 to i8*
  call void @llvm.memcpy.p0i8.p0i8.i64(i8* align 4 %74, i8* align 4 %75, i64 104, i1 false)
  %76 = load %struct.pe*, %struct.pe** %3, align 8
  %77 = load i32, i32* %5, align 4
  %78 = add nsw i32 %77, 1
  %79 = sext i32 %78 to i64
  %80 = getelementptr inbounds %struct.pe, %struct.pe* %76, i64 %79
  %81 = load %struct.pe*, %struct.pe** %3, align 8
  %82 = load i32, i32* %5, align 4
  %83 = sext i32 %82 to i64
  %84 = getelementptr inbounds %struct.pe, %struct.pe* %81, i64 %83
  %85 = bitcast %struct.pe* %80 to i8*
  %86 = bitcast %struct.pe* %84 to i8*
  call void @llvm.memcpy.p0i8.p0i8.i64(i8* align 4 %85, i8* align 4 %86, i64 104, i1 false)
  %87 = load %struct.pe*, %struct.pe** %3, align 8
  %88 = load i32, i32* %5, align 4
  %89 = sext i32 %88 to i64
  %90 = getelementptr inbounds %struct.pe, %struct.pe* %87, i64 %89
  %91 = bitcast %struct.pe* %90 to i8*
  %92 = bitcast %struct.pe* %6 to i8*
  call void @llvm.memcpy.p0i8.p0i8.i64(i8* align 4 %91, i8* align 4 %92, i64 104, i1 false)
  br label %93

93:                                               ; preds = %68, %53, %44
  br label %94

94:                                               ; preds = %93
  %95 = load i32, i32* %5, align 4
  %96 = add nsw i32 %95, 1
  store i32 %96, i32* %5, align 4
  br label %40

97:                                               ; preds = %40
  br label %98

98:                                               ; preds = %97
  %99 = load i32, i32* %4, align 4
  %100 = add nsw i32 %99, -1
  store i32 %100, i32* %4, align 4
  br label %36

101:                                              ; preds = %36
  store i32 0, i32* %4, align 4
  br label %102

102:                                              ; preds = %114, %101
  %103 = load i32, i32* %4, align 4
  %104 = load i32, i32* %2, align 4
  %105 = icmp slt i32 %103, %104
  br i1 %105, label %106, label %117

106:                                              ; preds = %102
  %107 = load %struct.pe*, %struct.pe** %3, align 8
  %108 = load i32, i32* %4, align 4
  %109 = sext i32 %108 to i64
  %110 = getelementptr inbounds %struct.pe, %struct.pe* %107, i64 %109
  %111 = getelementptr inbounds %struct.pe, %struct.pe* %110, i32 0, i32 0
  %112 = getelementptr inbounds [100 x i8], [100 x i8]* %111, i64 0, i64 0
  %113 = call i32 (i8*, ...) @printf(i8* getelementptr inbounds ([4 x i8], [4 x i8]* @.str.2, i64 0, i64 0), i8* %112)
  br label %114

114:                                              ; preds = %106
  %115 = load i32, i32* %4, align 4
  %116 = add nsw i32 %115, 1
  store i32 %116, i32* %4, align 4
  br label %102

117:                                              ; preds = %102
  ret i32 0
}

declare dso_local i32 @__isoc99_scanf(i8*, ...) #1

; Function Attrs: nounwind
declare dso_local noalias i8* @malloc(i64) #2

; Function Attrs: argmemonly nounwind willreturn
declare void @llvm.memcpy.p0i8.p0i8.i64(i8* noalias nocapture writeonly, i8* noalias nocapture readonly, i64, i1 immarg) #3

declare dso_local i32 @printf(i8*, ...) #1


!llvm.module.flags = !{!0}
!llvm.ident = !{!1}

!0 = !{i32 1, !"wchar_size", i32 4}
!1 = !{!"clang version 10.0.0-4ubuntu1 "}
